target datalayout = "e-m:e-p270:32:32-p271:32:32-p272:64:64-i64:64-i128:128-f80:128-n8:16:32:64-S128"
target triple = "x86_64-pc-linux-gnu"

%"class.std::__shared_count" = type { ptr }
%"class.arrow::StopToken" = type { %"class.std::shared_ptr.0" }
%"class.std::shared_ptr.0" = type { %"class.std::__shared_ptr.1" }
%"class.std::__shared_ptr.1" = type { ptr, %"class.std::__shared_count" }
%"class.arrow::internal::TaskGroup" = type { ptr, %"class.std::enable_shared_from_this" }
%"class.std::enable_shared_from_this" = type { %"class.std::weak_ptr" }
%"class.std::weak_ptr" = type { %"class.std::__weak_ptr" }
%"class.std::__weak_ptr" = type { ptr, %"class.std::__weak_count" }
%"class.std::__weak_count" = type { ptr }
%"class.arrow::Status" = type { ptr }
%"class.arrow::internal::(anonymous namespace)::ThreadedTaskGroup" = type { %"class.arrow::internal::TaskGroup", ptr, %"class.arrow::StopToken", %"struct.std::atomic", %"struct.std::atomic.3", %"struct.std::atomic.3", %"class.std::mutex", %"class.std::condition_variable", %"class.arrow::Status", %"class.std::optional" }
%"struct.std::atomic" = type { %"struct.std::__atomic_base" }
%"struct.std::__atomic_base" = type { i32 }
%"struct.std::atomic.3" = type { %"struct.std::__atomic_base.4" }
%"struct.std::__atomic_base.4" = type { i8 }
%"class.std::mutex" = type { %"class.std::__mutex_base" }
%"class.std::__mutex_base" = type { %union.pthread_mutex_t }
%union.pthread_mutex_t = type { %struct.__pthread_mutex_s }
%struct.__pthread_mutex_s = type { i32, i32, i32, i32, i32, i16, i16, %struct.__pthread_internal_list }
%struct.__pthread_internal_list = type { ptr, ptr }
%"class.std::condition_variable" = type { %"class.std::__condvar" }
%"class.std::__condvar" = type { %union.pthread_cond_t }
%union.pthread_cond_t = type { %struct.__pthread_cond_s }
%struct.__pthread_cond_s = type { %union.__atomic_wide_counter, %union.__atomic_wide_counter, [2 x i32], [2 x i32], i32, i32, [2 x i32] }
%union.__atomic_wide_counter = type { i64 }
%"class.std::optional" = type { %"struct.std::_Optional_base" }
%"struct.std::_Optional_base" = type { %"struct.std::_Optional_payload" }
%"struct.std::_Optional_payload" = type { %"struct.std::_Optional_payload.base", [7 x i8] }
%"struct.std::_Optional_payload.base" = type { %"struct.std::_Optional_payload_base.base" }
%"struct.std::_Optional_payload_base.base" = type <{ %"union.std::_Optional_payload_base<arrow::Future<>>::_Storage", i8 }>
%"union.std::_Optional_payload_base<arrow::Future<>>::_Storage" = type { %"class.arrow::Future" }
%"class.arrow::Future" = type { %"class.std::shared_ptr.6" }
%"class.std::shared_ptr.6" = type { %"class.std::__shared_ptr.7" }
%"class.std::__shared_ptr.7" = type { ptr, %"class.std::__shared_count" }

; Function Attrs: mustprogress uwtable
define internal noundef i32 @_ZN5arrow8internal12_GLOBAL__N_117ThreadedTaskGroup11parallelismEv(ptr noundef nonnull align 8 dereferenceable(176) %0) unnamed_addr #0 align 2 {
  %2 = alloca ptr, align 8
  store ptr %0, ptr %2, align 8, !tbaa !33
  %3 = load ptr, ptr %2, align 8
  %4 = getelementptr inbounds nuw %"class.arrow::internal::(anonymous namespace)::ThreadedTaskGroup", ptr %3, i32 0, i32 1
  %5 = load ptr, ptr %4, align 8, !tbaa !35
  %6 = load ptr, ptr %5, align 8, !tbaa !10
  %7 = getelementptr inbounds ptr, ptr %6, i64 2
  %8 = load ptr, ptr %7, align 8
  %9 = call noundef i32 %8(ptr noundef nonnull align 8 dereferenceable(8) %5)
  ret i32 %9
}