; Function Attrs: mustprogress uwtable
define internal noundef i32 @_ZN5arrow8internal12_GLOBAL__N_117ThreadedTaskGroup11parallelismEv(ptr noundef nonnull readonly align 8 captures(none) dereferenceable(176) %0) unnamed_addr #0 align 2 {
  %2 = getelementptr inbounds nuw i8, ptr %0, i64 24
  %3 = load ptr, ptr %2, align 8, !tbaa !42
  %4 = load ptr, ptr %3, align 8, !tbaa !15
  %5 = getelementptr inbounds nuw i8, ptr %4, i64 16
  %6 = load ptr, ptr %5, align 8
  %7 = tail call noundef i32 %6(ptr noundef nonnull align 8 dereferenceable(8) %3)
  ret i32 %7
}